; Function Attrs: mustprogress uwtable
define noundef zeroext i1 @_ZN5draco17WriteBufferToFileEPKcmRKNSt7__cxx1112basic_stringIcSt11char_traitsIcESaIcEEE(ptr noundef %0, i64 noundef %1, ptr noundef nonnull align 8 dereferenceable(32) %2) local_unnamed_addr #3 personality ptr @__gxx_personality_v0 {
  %4 = alloca %"class.std::unique_ptr.2", align 8
  call void @_ZN5draco17FileWriterFactory10OpenWriterERKNSt7__cxx1112basic_stringIcSt11char_traitsIcESaIcEEE(ptr dead_on_unwind nonnull writable sret(%"class.std::unique_ptr.2") align 8 %4, ptr noundef nonnull align 8 dereferenceable(32) %2)
  %5 = load ptr, ptr %4, align 8
  %.not.i = icmp eq ptr %5, null
  br i1 %.not.i, label %_ZNSt10unique_ptrIN5draco19FileWriterInterfaceESt14default_deleteIS1_EED2Ev.exit8, label %6

6:                                                ; preds = %3
  %7 = load ptr, ptr %5, align 8
  %8 = getelementptr inbounds nuw i8, ptr %7, i64 16
  %9 = load ptr, ptr %8, align 8
  %10 = invoke noundef zeroext i1 %9(ptr noundef nonnull align 8 dereferenceable(8) %5, ptr noundef %0, i64 noundef %1)
          to label %17 unwind label %11

11:                                               ; preds = %6
  %12 = landingpad { ptr, i32 }
          cleanup
  %13 = load ptr, ptr %4, align 8
  %.not.i5 = icmp eq ptr %13, null
  br i1 %.not.i5, label %_ZNSt10unique_ptrIN5draco19FileWriterInterfaceESt14default_deleteIS1_EED2Ev.exit, label %_ZNKSt14default_deleteIN5draco19FileWriterInterfaceEEclEPS1_.exit.i

_ZNKSt14default_deleteIN5draco19FileWriterInterfaceEEclEPS1_.exit.i: ; preds = %11
  %14 = load ptr, ptr %13, align 8
  %15 = getelementptr inbounds nuw i8, ptr %14, i64 8
  %16 = load ptr, ptr %15, align 8
  call void %16(ptr noundef nonnull align 8 dereferenceable(8) %13) #11
  br label %_ZNSt10unique_ptrIN5draco19FileWriterInterfaceESt14default_deleteIS1_EED2Ev.exit

_ZNSt10unique_ptrIN5draco19FileWriterInterfaceESt14default_deleteIS1_EED2Ev.exit: ; preds = %11, %_ZNKSt14default_deleteIN5draco19FileWriterInterfaceEEclEPS1_.exit.i
  resume { ptr, i32 } %12

17:                                               ; preds = %6
  %.pr = load ptr, ptr %4, align 8
  %.not.i6 = icmp eq ptr %.pr, null
  br i1 %.not.i6, label %_ZNSt10unique_ptrIN5draco19FileWriterInterfaceESt14default_deleteIS1_EED2Ev.exit8, label %_ZNKSt14default_deleteIN5draco19FileWriterInterfaceEEclEPS1_.exit.i7

_ZNKSt14default_deleteIN5draco19FileWriterInterfaceEEclEPS1_.exit.i7: ; preds = %17
  %18 = load ptr, ptr %.pr, align 8
  %19 = getelementptr inbounds nuw i8, ptr %18, i64 8
  %20 = load ptr, ptr %19, align 8
  call void %20(ptr noundef nonnull align 8 dereferenceable(8) %.pr) #11
  br label %_ZNSt10unique_ptrIN5draco19FileWriterInterfaceESt14default_deleteIS1_EED2Ev.exit8

_ZNSt10unique_ptrIN5draco19FileWriterInterfaceESt14default_deleteIS1_EED2Ev.exit8: ; preds = %3, %17, %_ZNKSt14default_deleteIN5draco19FileWriterInterfaceEEclEPS1_.exit.i7
  %.011 = phi i1 [ %10, %17 ], [ %10, %_ZNKSt14default_deleteIN5draco19FileWriterInterfaceEEclEPS1_.exit.i7 ], [ false, %3 ]
  ret i1 %.011
}